; Function Attrs: mustprogress nounwind uwtable
define void @_ZN11OpenImageIO6v3_1_08ArgParseD2Ev(ptr noundef nonnull readonly align 8 captures(none) dereferenceable(16) %0) unnamed_addr #8 align 2 personality ptr @__gxx_personality_v0 {
  %2 = getelementptr inbounds nuw i8, ptr %0, i64 8
  %3 = load ptr, ptr %2, align 8, !tbaa !136
  %.not.i.i = icmp eq ptr %3, null
  br i1 %.not.i.i, label %_ZNSt12__shared_ptrIN11OpenImageIO6v3_1_08ArgParse4ImplELN9__gnu_cxx12_Lock_policyE2EED2Ev.exit, label %4

4:                                                ; preds = %1
  %5 = getelementptr inbounds nuw i8, ptr %3, i64 8
  %6 = load atomic i64, ptr %5 acquire, align 8
  %7 = icmp eq i64 %6, 4294967297
  %8 = trunc i64 %6 to i32
  br i1 %7, label %9, label %17

9:                                                ; preds = %4
  store i32 0, ptr %5, align 8, !tbaa !137
  %10 = getelementptr inbounds nuw i8, ptr %3, i64 12
  store i32 0, ptr %10, align 4, !tbaa !139
  %11 = load ptr, ptr %3, align 8, !tbaa !51
  %12 = getelementptr inbounds nuw i8, ptr %11, i64 16
  %13 = load ptr, ptr %12, align 8
  tail call void %13(ptr noundef nonnull align 8 dereferenceable(16) %3) #36
  %14 = load ptr, ptr %3, align 8, !tbaa !51
  %15 = getelementptr inbounds nuw i8, ptr %14, i64 24
  %16 = load ptr, ptr %15, align 8
  tail call void %16(ptr noundef nonnull align 8 dereferenceable(16) %3) #36
  br label %_ZNSt12__shared_ptrIN11OpenImageIO6v3_1_08ArgParse4ImplELN9__gnu_cxx12_Lock_policyE2EED2Ev.exit

17:                                               ; preds = %4
  %18 = load i8, ptr @__libc_single_threaded, align 1, !tbaa !14
  %.not.i.i.i = icmp eq i8 %18, 0
  br i1 %.not.i.i.i, label %21, label %19

19:                                               ; preds = %17
  %20 = add nsw i32 %8, -1
  store i32 %20, ptr %5, align 4, !tbaa !101
  br label %_ZN9__gnu_cxx27__exchange_and_add_dispatchEPii.exit.i.i.i

21:                                               ; preds = %17
  %22 = atomicrmw volatile add ptr %5, i32 -1 acq_rel, align 4
  br label %_ZN9__gnu_cxx27__exchange_and_add_dispatchEPii.exit.i.i.i

_ZN9__gnu_cxx27__exchange_and_add_dispatchEPii.exit.i.i.i: ; preds = %21, %19
  %.0.i.i.i.i = phi i32 [ %8, %19 ], [ %22, %21 ]
  %23 = icmp eq i32 %.0.i.i.i.i, 1
  br i1 %23, label %24, label %_ZNSt12__shared_ptrIN11OpenImageIO6v3_1_08ArgParse4ImplELN9__gnu_cxx12_Lock_policyE2EED2Ev.exit, !prof !37

24:                                               ; preds = %_ZN9__gnu_cxx27__exchange_and_add_dispatchEPii.exit.i.i.i
  tail call void @_ZNSt16_Sp_counted_baseILN9__gnu_cxx12_Lock_policyE2EE24_M_release_last_use_coldEv(ptr noundef nonnull align 8 dereferenceable(16) %3) #36
  br label %_ZNSt12__shared_ptrIN11OpenImageIO6v3_1_08ArgParse4ImplELN9__gnu_cxx12_Lock_policyE2EED2Ev.exit

_ZNSt12__shared_ptrIN11OpenImageIO6v3_1_08ArgParse4ImplELN9__gnu_cxx12_Lock_policyE2EED2Ev.exit: ; preds = %1, %9, %_ZN9__gnu_cxx27__exchange_and_add_dispatchEPii.exit.i.i.i, %24
  ret void
}